target datalayout = "e-m:e-p270:32:32-p271:32:32-p272:64:64-i64:64-i128:128-f80:128-n8:16:32:64-S128"
target triple = "x86_64-pc-linux-gnu"

%struct.UDataSwapper = type { i8, i8, i8, i8, ptr, ptr, ptr, ptr, ptr, ptr, ptr, ptr, ptr, ptr, ptr }
%struct.UCPTrieHeader = type { i32, i16, i16, i16, i16, i16, i16 }

; Function Attrs: inlinehint mustprogress nounwind uwtable
define internal noundef signext i8 @_ZL9U_FAILURE10UErrorCode(i32 noundef %0) #2 {
  %2 = alloca i32, align 4
  store i32 %0, ptr %2, align 4, !tbaa !11
  %3 = load i32, ptr %2, align 4, !tbaa !11
  %4 = icmp sgt i32 %3, 0
  %5 = zext i1 %4 to i8
  ret i8 %5
}

; Function Attrs: mustprogress uwtable
define i32 @ucptrie_swap_77(ptr noundef %0, ptr noundef %1, i32 noundef %2, ptr noundef %3, ptr noundef %4) #0 {
  %6 = alloca i32, align 4
  %7 = alloca ptr, align 8
  %8 = alloca ptr, align 8
  %9 = alloca i32, align 4
  %10 = alloca ptr, align 8
  %11 = alloca ptr, align 8
  %12 = alloca ptr, align 8
  %13 = alloca %struct.UCPTrieHeader, align 4
  %14 = alloca i32, align 4
  %15 = alloca i32, align 4
  %16 = alloca i32, align 4
  %17 = alloca i32, align 4
  %18 = alloca i32, align 4
  %19 = alloca i32, align 4
  %20 = alloca ptr, align 8
  %21 = alloca ptr, align 8
  %22 = alloca ptr, align 8
  %23 = alloca ptr, align 8
  %24 = alloca ptr, align 8
  store ptr %0, ptr %7, align 8, !tbaa !3
  store ptr %1, ptr %8, align 8, !tbaa !8
  store i32 %2, ptr %9, align 4, !tbaa !9
  store ptr %3, ptr %10, align 8, !tbaa !8
  store ptr %4, ptr %11, align 8, !tbaa !8
  call void @llvm.lifetime.start.p0(i64 8, ptr %12) #6
  call void @llvm.lifetime.start.p0(i64 16, ptr %13) #6
  call void @llvm.lifetime.start.p0(i64 4, ptr %14) #6
  call void @llvm.lifetime.start.p0(i64 4, ptr %15) #6
  call void @llvm.lifetime.start.p0(i64 4, ptr %16) #6
  %25 = load ptr, ptr %11, align 8, !tbaa !8
  %26 = load i32, ptr %25, align 4, !tbaa !11
  %27 = call noundef signext i8 @_ZL9U_FAILURE10UErrorCode(i32 noundef %26)
  %28 = icmp ne i8 %27, 0
  br i1 %28, label %29, label %30

29:                                               ; preds = %5
  store i32 0, ptr %6, align 4
  store i32 1, ptr %17, align 4
  br label %263

30:                                               ; preds = %5
  %31 = load ptr, ptr %7, align 8, !tbaa !3
  %32 = icmp eq ptr %31, null
  br i1 %32, label %42, label %33

33:                                               ; preds = %30
  %34 = load ptr, ptr %8, align 8, !tbaa !8
  %35 = icmp eq ptr %34, null
  br i1 %35, label %42, label %36

36:                                               ; preds = %33
  %37 = load i32, ptr %9, align 4, !tbaa !9
  %38 = icmp sge i32 %37, 0
  br i1 %38, label %39, label %44

39:                                               ; preds = %36
  %40 = load ptr, ptr %10, align 8, !tbaa !8
  %41 = icmp eq ptr %40, null
  br i1 %41, label %42, label %44

42:                                               ; preds = %39, %33, %30
  %43 = load ptr, ptr %11, align 8, !tbaa !8
  store i32 1, ptr %43, align 4, !tbaa !11
  store i32 0, ptr %6, align 4
  store i32 1, ptr %17, align 4
  br label %263

44:                                               ; preds = %39, %36
  %45 = load i32, ptr %9, align 4, !tbaa !9
  %46 = icmp sge i32 %45, 0
  br i1 %46, label %47, label %52

47:                                               ; preds = %44
  %48 = load i32, ptr %9, align 4, !tbaa !9
  %49 = icmp slt i32 %48, 16
  br i1 %49, label %50, label %52

50:                                               ; preds = %47
  %51 = load ptr, ptr %11, align 8, !tbaa !8
  store i32 8, ptr %51, align 4, !tbaa !11
  store i32 0, ptr %6, align 4
  store i32 1, ptr %17, align 4
  br label %263

52:                                               ; preds = %47, %44
  %53 = load ptr, ptr %8, align 8, !tbaa !8
  store ptr %53, ptr %12, align 8, !tbaa !36
  %54 = load ptr, ptr %7, align 8, !tbaa !3
  %55 = getelementptr inbounds nuw %struct.UDataSwapper, ptr %54, i32 0, i32 5
  %56 = load ptr, ptr %55, align 8, !tbaa !15
  %57 = load ptr, ptr %12, align 8, !tbaa !36
  %58 = getelementptr inbounds nuw %struct.UCPTrieHeader, ptr %57, i32 0, i32 0
  %59 = load i32, ptr %58, align 4, !tbaa !38
  %60 = call noundef i32 %56(i32 noundef %59)
  %61 = getelementptr inbounds nuw %struct.UCPTrieHeader, ptr %13, i32 0, i32 0
  store i32 %60, ptr %61, align 4, !tbaa !38
  %62 = load ptr, ptr %7, align 8, !tbaa !3
  %63 = getelementptr inbounds nuw %struct.UDataSwapper, ptr %62, i32 0, i32 4
  %64 = load ptr, ptr %63, align 8, !tbaa !30
  %65 = load ptr, ptr %12, align 8, !tbaa !36
  %66 = getelementptr inbounds nuw %struct.UCPTrieHeader, ptr %65, i32 0, i32 1
  %67 = load i16, ptr %66, align 4, !tbaa !40
  %68 = call noundef zeroext i16 %64(i16 noundef zeroext %67)
  %69 = getelementptr inbounds nuw %struct.UCPTrieHeader, ptr %13, i32 0, i32 1
  store i16 %68, ptr %69, align 4, !tbaa !40
  %70 = load ptr, ptr %7, align 8, !tbaa !3
  %71 = getelementptr inbounds nuw %struct.UDataSwapper, ptr %70, i32 0, i32 4
  %72 = load ptr, ptr %71, align 8, !tbaa !30
  %73 = load ptr, ptr %12, align 8, !tbaa !36
  %74 = getelementptr inbounds nuw %struct.UCPTrieHeader, ptr %73, i32 0, i32 2
  %75 = load i16, ptr %74, align 2, !tbaa !41
  %76 = call noundef zeroext i16 %72(i16 noundef zeroext %75)
  %77 = getelementptr inbounds nuw %struct.UCPTrieHeader, ptr %13, i32 0, i32 2
  store i16 %76, ptr %77, align 2, !tbaa !41
  %78 = load ptr, ptr %7, align 8, !tbaa !3
  %79 = getelementptr inbounds nuw %struct.UDataSwapper, ptr %78, i32 0, i32 4
  %80 = load ptr, ptr %79, align 8, !tbaa !30
  %81 = load ptr, ptr %12, align 8, !tbaa !36
  %82 = getelementptr inbounds nuw %struct.UCPTrieHeader, ptr %81, i32 0, i32 3
  %83 = load i16, ptr %82, align 4, !tbaa !42
  %84 = call noundef zeroext i16 %80(i16 noundef zeroext %83)
  %85 = getelementptr inbounds nuw %struct.UCPTrieHeader, ptr %13, i32 0, i32 3
  store i16 %84, ptr %85, align 4, !tbaa !42
  call void @llvm.lifetime.start.p0(i64 4, ptr %18) #6
  %86 = getelementptr inbounds nuw %struct.UCPTrieHeader, ptr %13, i32 0, i32 1
  %87 = load i16, ptr %86, align 4, !tbaa !40
  %88 = zext i16 %87 to i32
  %89 = ashr i32 %88, 6
  %90 = and i32 %89, 3
  store i32 %90, ptr %18, align 4, !tbaa !43
  %91 = getelementptr inbounds nuw %struct.UCPTrieHeader, ptr %13, i32 0, i32 1
  %92 = load i16, ptr %91, align 4, !tbaa !40
  %93 = zext i16 %92 to i32
  %94 = and i32 %93, 7
  store i32 %94, ptr %16, align 4, !tbaa !45
  %95 = getelementptr inbounds nuw %struct.UCPTrieHeader, ptr %13, i32 0, i32 1
  %96 = load i16, ptr %95, align 4, !tbaa !40
  %97 = zext i16 %96 to i32
  %98 = and i32 %97, 61440
  %99 = shl i32 %98, 4
  %100 = getelementptr inbounds nuw %struct.UCPTrieHeader, ptr %13, i32 0, i32 3
  %101 = load i16, ptr %100, align 4, !tbaa !42
  %102 = zext i16 %101 to i32
  %103 = or i32 %99, %102
  store i32 %103, ptr %14, align 4, !tbaa !9
  call void @llvm.lifetime.start.p0(i64 4, ptr %19) #6
  %104 = load i32, ptr %18, align 4, !tbaa !43
  %105 = icmp eq i32 %104, 0
  %106 = select i1 %105, i32 1024, i32 64
  store i32 %106, ptr %19, align 4, !tbaa !9
  %107 = getelementptr inbounds nuw %struct.UCPTrieHeader, ptr %13, i32 0, i32 0
  %108 = load i32, ptr %107, align 4, !tbaa !38
  %109 = icmp ne i32 %108, 1416784179
  br i1 %109, label %131, label %110

110:                                              ; preds = %52
  %111 = load i32, ptr %18, align 4, !tbaa !43
  %112 = icmp sgt i32 %111, 1
  br i1 %112, label %131, label %113

113:                                              ; preds = %110
  %114 = getelementptr inbounds nuw %struct.UCPTrieHeader, ptr %13, i32 0, i32 1
  %115 = load i16, ptr %114, align 4, !tbaa !40
  %116 = zext i16 %115 to i32
  %117 = and i32 %116, 56
  %118 = icmp ne i32 %117, 0
  br i1 %118, label %131, label %119

119:                                              ; preds = %113
  %120 = load i32, ptr %16, align 4, !tbaa !45
  %121 = icmp sgt i32 %120, 2
  br i1 %121, label %131, label %122

122:                                              ; preds = %119
  %123 = getelementptr inbounds nuw %struct.UCPTrieHeader, ptr %13, i32 0, i32 2
  %124 = load i16, ptr %123, align 2, !tbaa !41
  %125 = zext i16 %124 to i32
  %126 = load i32, ptr %19, align 4, !tbaa !9
  %127 = icmp slt i32 %125, %126
  br i1 %127, label %131, label %128

128:                                              ; preds = %122
  %129 = load i32, ptr %14, align 4, !tbaa !9
  %130 = icmp slt i32 %129, 128
  br i1 %130, label %131, label %133

131:                                              ; preds = %128, %122, %119, %113, %110, %52
  %132 = load ptr, ptr %11, align 8, !tbaa !8
  store i32 3, ptr %132, align 4, !tbaa !11
  store i32 0, ptr %6, align 4
  store i32 1, ptr %17, align 4
  br label %262

133:                                              ; preds = %128
  %134 = getelementptr inbounds nuw %struct.UCPTrieHeader, ptr %13, i32 0, i32 2
  %135 = load i16, ptr %134, align 2, !tbaa !41
  %136 = zext i16 %135 to i32
  %137 = mul nsw i32 %136, 2
  %138 = sext i32 %137 to i64
  %139 = add i64 16, %138
  %140 = trunc i64 %139 to i32
  store i32 %140, ptr %15, align 4, !tbaa !9
  %141 = load i32, ptr %16, align 4, !tbaa !45
  switch i32 %141, label %156 [
    i32 0, label %142
    i32 1, label %147
    i32 2, label %152
  ]

142:                                              ; preds = %133
  %143 = load i32, ptr %14, align 4, !tbaa !9
  %144 = mul nsw i32 %143, 2
  %145 = load i32, ptr %15, align 4, !tbaa !9
  %146 = add nsw i32 %145, %144
  store i32 %146, ptr %15, align 4, !tbaa !9
  br label %158

147:                                              ; preds = %133
  %148 = load i32, ptr %14, align 4, !tbaa !9
  %149 = mul nsw i32 %148, 4
  %150 = load i32, ptr %15, align 4, !tbaa !9
  %151 = add nsw i32 %150, %149
  store i32 %151, ptr %15, align 4, !tbaa !9
  br label %158

152:                                              ; preds = %133
  %153 = load i32, ptr %14, align 4, !tbaa !9
  %154 = load i32, ptr %15, align 4, !tbaa !9
  %155 = add nsw i32 %154, %153
  store i32 %155, ptr %15, align 4, !tbaa !9
  br label %158

156:                                              ; preds = %133
  %157 = load ptr, ptr %11, align 8, !tbaa !8
  store i32 3, ptr %157, align 4, !tbaa !11
  store i32 0, ptr %6, align 4
  store i32 1, ptr %17, align 4
  br label %262

158:                                              ; preds = %152, %147, %142
  %159 = load i32, ptr %9, align 4, !tbaa !9
  %160 = icmp sge i32 %159, 0
  br i1 %160, label %161, label %260

161:                                              ; preds = %158
  call void @llvm.lifetime.start.p0(i64 8, ptr %20) #6
  %162 = load i32, ptr %9, align 4, !tbaa !9
  %163 = load i32, ptr %15, align 4, !tbaa !9
  %164 = icmp slt i32 %162, %163
  br i1 %164, label %165, label %167

165:                                              ; preds = %161
  %166 = load ptr, ptr %11, align 8, !tbaa !8
  store i32 8, ptr %166, align 4, !tbaa !11
  store i32 0, ptr %6, align 4
  store i32 1, ptr %17, align 4
  br label %257

167:                                              ; preds = %161
  %168 = load ptr, ptr %10, align 8, !tbaa !8
  store ptr %168, ptr %20, align 8, !tbaa !36
  %169 = load ptr, ptr %7, align 8, !tbaa !3
  %170 = getelementptr inbounds nuw %struct.UDataSwapper, ptr %169, i32 0, i32 10
  %171 = load ptr, ptr %170, align 8, !tbaa !23
  %172 = load ptr, ptr %7, align 8, !tbaa !3
  %173 = load ptr, ptr %12, align 8, !tbaa !36
  %174 = getelementptr inbounds nuw %struct.UCPTrieHeader, ptr %173, i32 0, i32 0
  %175 = load ptr, ptr %20, align 8, !tbaa !36
  %176 = getelementptr inbounds nuw %struct.UCPTrieHeader, ptr %175, i32 0, i32 0
  %177 = load ptr, ptr %11, align 8, !tbaa !8
  %178 = call noundef i32 %171(ptr noundef %172, ptr noundef %174, i32 noundef 4, ptr noundef %176, ptr noundef %177)
  %179 = load ptr, ptr %7, align 8, !tbaa !3
  %180 = getelementptr inbounds nuw %struct.UDataSwapper, ptr %179, i32 0, i32 9
  %181 = load ptr, ptr %180, align 8, !tbaa !24
  %182 = load ptr, ptr %7, align 8, !tbaa !3
  %183 = load ptr, ptr %12, align 8, !tbaa !36
  %184 = getelementptr inbounds nuw %struct.UCPTrieHeader, ptr %183, i32 0, i32 1
  %185 = load ptr, ptr %20, align 8, !tbaa !36
  %186 = getelementptr inbounds nuw %struct.UCPTrieHeader, ptr %185, i32 0, i32 1
  %187 = load ptr, ptr %11, align 8, !tbaa !8
  %188 = call noundef i32 %181(ptr noundef %182, ptr noundef %184, i32 noundef 12, ptr noundef %186, ptr noundef %187)
  call void @llvm.lifetime.start.p0(i64 8, ptr %21) #6
  %189 = load ptr, ptr %12, align 8, !tbaa !36
  %190 = getelementptr inbounds %struct.UCPTrieHeader, ptr %189, i64 1
  store ptr %190, ptr %21, align 8, !tbaa !47
  call void @llvm.lifetime.start.p0(i64 8, ptr %22) #6
  %191 = load ptr, ptr %20, align 8, !tbaa !36
  %192 = getelementptr inbounds %struct.UCPTrieHeader, ptr %191, i64 1
  store ptr %192, ptr %22, align 8, !tbaa !47
  %193 = load ptr, ptr %7, align 8, !tbaa !3
  %194 = getelementptr inbounds nuw %struct.UDataSwapper, ptr %193, i32 0, i32 9
  %195 = load ptr, ptr %194, align 8, !tbaa !24
  %196 = load ptr, ptr %7, align 8, !tbaa !3
  %197 = load ptr, ptr %21, align 8, !tbaa !47
  %198 = getelementptr inbounds nuw %struct.UCPTrieHeader, ptr %13, i32 0, i32 2
  %199 = load i16, ptr %198, align 2, !tbaa !41
  %200 = zext i16 %199 to i32
  %201 = mul nsw i32 %200, 2
  %202 = load ptr, ptr %22, align 8, !tbaa !47
  %203 = load ptr, ptr %11, align 8, !tbaa !8
  %204 = call noundef i32 %195(ptr noundef %196, ptr noundef %197, i32 noundef %201, ptr noundef %202, ptr noundef %203)
  call void @llvm.lifetime.start.p0(i64 8, ptr %23) #6
  %205 = load ptr, ptr %21, align 8, !tbaa !47
  %206 = getelementptr inbounds nuw %struct.UCPTrieHeader, ptr %13, i32 0, i32 2
  %207 = load i16, ptr %206, align 2, !tbaa !41
  %208 = zext i16 %207 to i32
  %209 = sext i32 %208 to i64
  %210 = getelementptr inbounds i16, ptr %205, i64 %209
  store ptr %210, ptr %23, align 8, !tbaa !47
  call void @llvm.lifetime.start.p0(i64 8, ptr %24) #6
  %211 = load ptr, ptr %22, align 8, !tbaa !47
  %212 = getelementptr inbounds nuw %struct.UCPTrieHeader, ptr %13, i32 0, i32 2
  %213 = load i16, ptr %212, align 2, !tbaa !41
  %214 = zext i16 %213 to i32
  %215 = sext i32 %214 to i64
  %216 = getelementptr inbounds i16, ptr %211, i64 %215
  store ptr %216, ptr %24, align 8, !tbaa !47
  %217 = load i32, ptr %16, align 4, !tbaa !45
  switch i32 %217, label %253 [
    i32 0, label %218
    i32 1, label %229
    i32 2, label %240
  ]

218:                                              ; preds = %167
  %219 = load ptr, ptr %7, align 8, !tbaa !3
  %220 = getelementptr inbounds nuw %struct.UDataSwapper, ptr %219, i32 0, i32 9
  %221 = load ptr, ptr %220, align 8, !tbaa !24
  %222 = load ptr, ptr %7, align 8, !tbaa !3
  %223 = load ptr, ptr %23, align 8, !tbaa !47
  %224 = load i32, ptr %14, align 4, !tbaa !9
  %225 = mul nsw i32 %224, 2
  %226 = load ptr, ptr %24, align 8, !tbaa !47
  %227 = load ptr, ptr %11, align 8, !tbaa !8
  %228 = call noundef i32 %221(ptr noundef %222, ptr noundef %223, i32 noundef %225, ptr noundef %226, ptr noundef %227)
  br label %255

229:                                              ; preds = %167
  %230 = load ptr, ptr %7, align 8, !tbaa !3
  %231 = getelementptr inbounds nuw %struct.UDataSwapper, ptr %230, i32 0, i32 10
  %232 = load ptr, ptr %231, align 8, !tbaa !23
  %233 = load ptr, ptr %7, align 8, !tbaa !3
  %234 = load ptr, ptr %23, align 8, !tbaa !47
  %235 = load i32, ptr %14, align 4, !tbaa !9
  %236 = mul nsw i32 %235, 4
  %237 = load ptr, ptr %24, align 8, !tbaa !47
  %238 = load ptr, ptr %11, align 8, !tbaa !8
  %239 = call noundef i32 %232(ptr noundef %233, ptr noundef %234, i32 noundef %236, ptr noundef %237, ptr noundef %238)
  br label %255

240:                                              ; preds = %167
  %241 = load ptr, ptr %12, align 8, !tbaa !36
  %242 = load ptr, ptr %20, align 8, !tbaa !36
  %243 = icmp ne ptr %241, %242
  br i1 %243, label %244, label %252

244:                                              ; preds = %240
  br label %245

245:                                              ; preds = %244
  %246 = load ptr, ptr %24, align 8, !tbaa !47
  %247 = load ptr, ptr %23, align 8, !tbaa !47
  %248 = load i32, ptr %14, align 4, !tbaa !9
  %249 = sext i32 %248 to i64
  call void @llvm.memmove.p0.p0.i64(ptr align 2 %246, ptr align 2 %247, i64 %249, i1 false)
  br label %250

250:                                              ; preds = %245
  br label %251

251:                                              ; preds = %250
  br label %252

252:                                              ; preds = %251, %240
  br label %255

253:                                              ; preds = %167
  %254 = load ptr, ptr %11, align 8, !tbaa !8
  store i32 3, ptr %254, align 4, !tbaa !11
  store i32 0, ptr %6, align 4
  store i32 1, ptr %17, align 4
  br label %256

255:                                              ; preds = %252, %229, %218
  store i32 0, ptr %17, align 4
  br label %256

256:                                              ; preds = %255, %253
  call void @llvm.lifetime.end.p0(i64 8, ptr %24) #6
  call void @llvm.lifetime.end.p0(i64 8, ptr %23) #6
  call void @llvm.lifetime.end.p0(i64 8, ptr %22) #6
  call void @llvm.lifetime.end.p0(i64 8, ptr %21) #6
  br label %257

257:                                              ; preds = %256, %165
  call void @llvm.lifetime.end.p0(i64 8, ptr %20) #6
  %258 = load i32, ptr %17, align 4
  switch i32 %258, label %262 [
    i32 0, label %259
  ]

259:                                              ; preds = %257
  br label %260

260:                                              ; preds = %259, %158
  %261 = load i32, ptr %15, align 4, !tbaa !9
  store i32 %261, ptr %6, align 4
  store i32 1, ptr %17, align 4
  br label %262

262:                                              ; preds = %260, %257, %156, %131
  call void @llvm.lifetime.end.p0(i64 4, ptr %19) #6
  call void @llvm.lifetime.end.p0(i64 4, ptr %18) #6
  br label %263

263:                                              ; preds = %262, %50, %42, %29
  call void @llvm.lifetime.end.p0(i64 4, ptr %16) #6
  call void @llvm.lifetime.end.p0(i64 4, ptr %15) #6
  call void @llvm.lifetime.end.p0(i64 4, ptr %14) #6
  call void @llvm.lifetime.end.p0(i64 16, ptr %13) #6
  call void @llvm.lifetime.end.p0(i64 8, ptr %12) #6
  %264 = load i32, ptr %6, align 4
  ret i32 %264
}