; Function Attrs: mustprogress uwtable
define range(i32 0, 4325387) i32 @ucptrie_swap_77(ptr noundef %0, ptr noundef %1, i32 noundef %2, ptr noundef %3, ptr noundef %4) local_unnamed_addr #0 {
  %6 = load i32, ptr %4, align 4, !tbaa !3
  %7 = icmp slt i32 %6, 1
  br i1 %7, label %8, label %.thread

8:                                                ; preds = %5
  %9 = icmp eq ptr %0, null
  %10 = icmp eq ptr %1, null
  %or.cond = or i1 %9, %10
  br i1 %or.cond, label %14, label %11

11:                                               ; preds = %8
  %12 = icmp sgt i32 %2, -1
  %13 = icmp eq ptr %3, null
  %or.cond3 = and i1 %12, %13
  br i1 %or.cond3, label %14, label %15

14:                                               ; preds = %11, %8
  store i32 1, ptr %4, align 4, !tbaa !3
  br label %.thread

15:                                               ; preds = %11
  %or.cond5 = icmp ult i32 %2, 16
  br i1 %or.cond5, label %16, label %17

16:                                               ; preds = %15
  store i32 8, ptr %4, align 4, !tbaa !3
  br label %.thread

17:                                               ; preds = %15
  %18 = getelementptr inbounds nuw i8, ptr %0, i64 16
  %19 = load ptr, ptr %18, align 8, !tbaa !7
  %20 = load i32, ptr %1, align 4, !tbaa !25
  %21 = tail call noundef i32 %19(i32 noundef %20)
  %22 = getelementptr inbounds nuw i8, ptr %0, i64 8
  %23 = load ptr, ptr %22, align 8, !tbaa !21
  %24 = getelementptr inbounds nuw i8, ptr %1, i64 4
  %25 = load i16, ptr %24, align 4, !tbaa !27
  %26 = tail call noundef zeroext i16 %23(i16 noundef zeroext %25)
  %27 = load ptr, ptr %22, align 8, !tbaa !21
  %28 = getelementptr inbounds nuw i8, ptr %1, i64 6
  %29 = load i16, ptr %28, align 2, !tbaa !28
  %30 = tail call noundef zeroext i16 %27(i16 noundef zeroext %29)
  %31 = load ptr, ptr %22, align 8, !tbaa !21
  %32 = getelementptr inbounds nuw i8, ptr %1, i64 8
  %33 = load i16, ptr %32, align 4, !tbaa !29
  %34 = tail call noundef zeroext i16 %31(i16 noundef zeroext %33)
  %35 = zext i16 %26 to i32
  %36 = lshr i32 %35, 6
  %37 = and i32 %36, 3
  %38 = and i32 %35, 7
  %39 = shl nuw nsw i32 %35, 4
  %40 = and i32 %39, 983040
  %41 = zext i16 %34 to i32
  %42 = or disjoint i32 %40, %41
  %43 = icmp eq i32 %37, 0
  %44 = select i1 %43, i32 1024, i32 64
  %45 = icmp ne i32 %21, 1416784179
  %46 = icmp samesign ugt i32 %37, 1
  %or.cond7 = select i1 %45, i1 true, i1 %46
  br i1 %or.cond7, label %55, label %47

47:                                               ; preds = %17
  %48 = and i32 %35, 56
  %49 = icmp ne i32 %48, 0
  %50 = icmp samesign ugt i32 %38, 2
  %or.cond9 = select i1 %49, i1 true, i1 %50
  br i1 %or.cond9, label %55, label %51

51:                                               ; preds = %47
  %52 = zext i16 %30 to i32
  %53 = icmp samesign ugt i32 %44, %52
  %54 = icmp samesign ult i32 %42, 128
  %or.cond11 = select i1 %53, i1 true, i1 %54
  br i1 %or.cond11, label %55, label %56

55:                                               ; preds = %51, %47, %17
  store i32 3, ptr %4, align 4, !tbaa !3
  br label %.thread

56:                                               ; preds = %51
  %57 = shl nuw nsw i32 %52, 1
  %narrow = add nuw nsw i32 %57, 16
  switch i32 %38, label %default.unreachable [
    i32 0, label %58
    i32 1, label %60
    i32 2, label %62
  ]

58:                                               ; preds = %56
  %59 = shl nuw nsw i32 %42, 1
  br label %62

60:                                               ; preds = %56
  %61 = shl nuw nsw i32 %42, 2
  br label %62

default.unreachable:                              ; preds = %64, %56
  unreachable

62:                                               ; preds = %56, %60, %58
  %.pn = phi i32 [ %61, %60 ], [ %59, %58 ], [ %42, %56 ]
  %.095 = add nuw nsw i32 %narrow, %.pn
  br i1 %12, label %63, label %.thread

63:                                               ; preds = %62
  %.not105 = icmp samesign ult i32 %2, %.095
  br i1 %.not105, label %90, label %64

64:                                               ; preds = %63
  %65 = getelementptr inbounds nuw i8, ptr %0, i64 56
  %66 = load ptr, ptr %65, align 8, !tbaa !16
  %67 = tail call noundef i32 %66(ptr noundef nonnull %0, ptr noundef nonnull %1, i32 noundef 4, ptr noundef %3, ptr noundef nonnull %4)
  %68 = getelementptr inbounds nuw i8, ptr %0, i64 48
  %69 = load ptr, ptr %68, align 8, !tbaa !17
  %70 = getelementptr inbounds nuw i8, ptr %3, i64 4
  %71 = tail call noundef i32 %69(ptr noundef nonnull %0, ptr noundef nonnull %24, i32 noundef 12, ptr noundef nonnull %70, ptr noundef nonnull %4)
  %72 = getelementptr inbounds nuw i8, ptr %1, i64 16
  %73 = getelementptr inbounds nuw i8, ptr %3, i64 16
  %74 = load ptr, ptr %68, align 8, !tbaa !17
  %75 = tail call noundef i32 %74(ptr noundef nonnull %0, ptr noundef nonnull %72, i32 noundef %57, ptr noundef nonnull %73, ptr noundef nonnull %4)
  %76 = zext i16 %30 to i64
  %77 = getelementptr inbounds nuw i16, ptr %72, i64 %76
  %78 = getelementptr inbounds nuw i16, ptr %73, i64 %76
  switch i32 %38, label %default.unreachable [
    i32 0, label %79
    i32 1, label %83
    i32 2, label %87
  ]

79:                                               ; preds = %64
  %80 = load ptr, ptr %68, align 8, !tbaa !17
  %81 = shl nuw nsw i32 %42, 1
  %82 = tail call noundef i32 %80(ptr noundef nonnull %0, ptr noundef nonnull %77, i32 noundef %81, ptr noundef nonnull %78, ptr noundef nonnull %4)
  br label %.thread

83:                                               ; preds = %64
  %84 = load ptr, ptr %65, align 8, !tbaa !16
  %85 = shl nuw nsw i32 %42, 2
  %86 = tail call noundef i32 %84(ptr noundef nonnull %0, ptr noundef nonnull %77, i32 noundef %85, ptr noundef nonnull %78, ptr noundef nonnull %4)
  br label %.thread

87:                                               ; preds = %64
  %.not104 = icmp eq ptr %1, %3
  br i1 %.not104, label %.thread, label %88

88:                                               ; preds = %87
  %89 = zext nneg i32 %42 to i64
  tail call void @llvm.memmove.p0.p0.i64(ptr nonnull align 2 %78, ptr nonnull align 2 %77, i64 %89, i1 false)
  br label %.thread

90:                                               ; preds = %63
  store i32 8, ptr %4, align 4, !tbaa !3
  br label %.thread

.thread:                                          ; preds = %79, %83, %88, %87, %62, %90, %55, %5, %16, %14
  %.0 = phi i32 [ 0, %14 ], [ 0, %16 ], [ 0, %5 ], [ 0, %55 ], [ 0, %90 ], [ %.095, %62 ], [ %.095, %87 ], [ %.095, %88 ], [ %.095, %83 ], [ %.095, %79 ]
  ret i32 %.0
}